target datalayout = "e-m:e-p270:32:32-p271:32:32-p272:64:64-i64:64-i128:128-f80:128-n8:16:32:64-S128"
target triple = "x86_64-pc-linux-gnu"

%"struct.boost::unit_test::results_reporter::(anonymous namespace)::results_reporter_impl" = type { %"class.boost::unit_test::test_tree_visitor", ptr, %"class.boost::scoped_ptr", i32, %"class.boost::scoped_ptr.0" }
%"class.boost::unit_test::test_tree_visitor" = type { ptr }
%"class.boost::scoped_ptr" = type { ptr }
%"class.boost::scoped_ptr.0" = type { ptr }

@__dso_handle = external hidden global i8
@_ZZN5boost9unit_test16results_reporter12_GLOBAL__N_19s_rr_implEvE8the_inst = internal global %"struct.boost::unit_test::results_reporter::(anonymous namespace)::results_reporter_impl" zeroinitializer, align 8
@_ZGVZN5boost9unit_test16results_reporter12_GLOBAL__N_19s_rr_implEvE8the_inst = internal global i64 0, align 8

; Function Attrs: mustprogress uwtable
define internal noundef nonnull align 8 dereferenceable(40) ptr @_ZN5boost9unit_test16results_reporter12_GLOBAL__N_19s_rr_implEv() #4 personality ptr @__gxx_personality_v0 {
  %1 = alloca ptr, align 8
  %2 = alloca i32, align 4
  %3 = load atomic i8, ptr @_ZGVZN5boost9unit_test16results_reporter12_GLOBAL__N_19s_rr_implEvE8the_inst acquire, align 8
  %4 = icmp eq i8 %3, 0
  br i1 %4, label %5, label %11, !prof !14

5:                                                ; preds = %0
  %6 = call i32 @__cxa_guard_acquire(ptr @_ZGVZN5boost9unit_test16results_reporter12_GLOBAL__N_19s_rr_implEvE8the_inst) #3
  %7 = icmp ne i32 %6, 0
  br i1 %7, label %8, label %11

8:                                                ; preds = %5
  invoke void @_ZN5boost9unit_test16results_reporter12_GLOBAL__N_121results_reporter_implC2Ev(ptr noundef nonnull align 8 dereferenceable(40) @_ZZN5boost9unit_test16results_reporter12_GLOBAL__N_19s_rr_implEvE8the_inst)
          to label %9 unwind label %12

9:                                                ; preds = %8
  %10 = call i32 @__cxa_atexit(ptr @_ZN5boost9unit_test16results_reporter12_GLOBAL__N_121results_reporter_implD2Ev, ptr @_ZZN5boost9unit_test16results_reporter12_GLOBAL__N_19s_rr_implEvE8the_inst, ptr @__dso_handle) #3
  call void @__cxa_guard_release(ptr @_ZGVZN5boost9unit_test16results_reporter12_GLOBAL__N_19s_rr_implEvE8the_inst) #3
  br label %11

11:                                               ; preds = %9, %5, %0
  ret ptr @_ZZN5boost9unit_test16results_reporter12_GLOBAL__N_19s_rr_implEvE8the_inst

12:                                               ; preds = %8
  %13 = landingpad { ptr, i32 }
          cleanup
  %14 = extractvalue { ptr, i32 } %13, 0
  store ptr %14, ptr %1, align 8
  %15 = extractvalue { ptr, i32 } %13, 1
  store i32 %15, ptr %2, align 4
  call void @__cxa_guard_abort(ptr @_ZGVZN5boost9unit_test16results_reporter12_GLOBAL__N_19s_rr_implEvE8the_inst) #3
  br label %16

16:                                               ; preds = %12
  %17 = load ptr, ptr %1, align 8
  %18 = load i32, ptr %2, align 4
  %19 = insertvalue { ptr, i32 } poison, ptr %17, 0
  %20 = insertvalue { ptr, i32 } %19, i32 %18, 1
  resume { ptr, i32 } %20
}

; Function Attrs: mustprogress uwtable
define void @_ZN5boost9unit_test16results_reporter9set_levelENS0_12report_levelE(i32 noundef %0) #4 {
  %2 = alloca i32, align 4
  store i32 %0, ptr %2, align 4, !tbaa !7
  %3 = load i32, ptr %2, align 4, !tbaa !7
  %4 = icmp ne i32 %3, 0
  br i1 %4, label %5, label %9

5:                                                ; preds = %1
  %6 = load i32, ptr %2, align 4, !tbaa !7
  %7 = call noundef nonnull align 8 dereferenceable(40) ptr @_ZN5boost9unit_test16results_reporter12_GLOBAL__N_19s_rr_implEv()
  %8 = getelementptr inbounds nuw %"struct.boost::unit_test::results_reporter::(anonymous namespace)::results_reporter_impl", ptr %7, i32 0, i32 3
  store i32 %6, ptr %8, align 8, !tbaa !9
  br label %9

9:                                                ; preds = %5, %1
  ret void
}