; Function Attrs: mustprogress uwtable
define void @_ZN5boost9unit_test16results_reporter9set_levelENS0_12report_levelE(i32 noundef %0) local_unnamed_addr #3 personality ptr @__gxx_personality_v0 {
  %.not = icmp eq i32 %0, 0
  br i1 %.not, label %12, label %2

2:                                                ; preds = %1
  %3 = load atomic i8, ptr @_ZGVZN5boost9unit_test16results_reporter12_GLOBAL__N_19s_rr_implEvE8the_inst acquire, align 8
  %4 = icmp eq i8 %3, 0
  br i1 %4, label %5, label %_ZN5boost9unit_test16results_reporter12_GLOBAL__N_19s_rr_implEv.exit, !prof !3

5:                                                ; preds = %2
  %6 = tail call i32 @__cxa_guard_acquire(ptr nonnull @_ZGVZN5boost9unit_test16results_reporter12_GLOBAL__N_19s_rr_implEvE8the_inst) #9
  %.not.i = icmp eq i32 %6, 0
  br i1 %.not.i, label %_ZN5boost9unit_test16results_reporter12_GLOBAL__N_19s_rr_implEv.exit, label %7

7:                                                ; preds = %5
  invoke fastcc void @_ZN5boost9unit_test16results_reporter12_GLOBAL__N_121results_reporter_implC2Ev()
          to label %8 unwind label %10

8:                                                ; preds = %7
  %9 = tail call i32 @__cxa_atexit(ptr nonnull @_ZN5boost9unit_test16results_reporter12_GLOBAL__N_121results_reporter_implD2Ev, ptr nonnull @_ZZN5boost9unit_test16results_reporter12_GLOBAL__N_19s_rr_implEvE8the_inst, ptr nonnull @__dso_handle) #9
  tail call void @__cxa_guard_release(ptr nonnull @_ZGVZN5boost9unit_test16results_reporter12_GLOBAL__N_19s_rr_implEvE8the_inst) #9
  br label %_ZN5boost9unit_test16results_reporter12_GLOBAL__N_19s_rr_implEv.exit

10:                                               ; preds = %7
  %11 = landingpad { ptr, i32 }
          cleanup
  tail call void @__cxa_guard_abort(ptr nonnull @_ZGVZN5boost9unit_test16results_reporter12_GLOBAL__N_19s_rr_implEvE8the_inst) #9
  resume { ptr, i32 } %11

_ZN5boost9unit_test16results_reporter12_GLOBAL__N_19s_rr_implEv.exit: ; preds = %2, %5, %8
  store i32 %0, ptr getelementptr inbounds nuw (i8, ptr @_ZZN5boost9unit_test16results_reporter12_GLOBAL__N_19s_rr_implEvE8the_inst, i64 24), align 8, !tbaa !4
  br label %12

12:                                               ; preds = %_ZN5boost9unit_test16results_reporter12_GLOBAL__N_19s_rr_implEv.exit, %1
  ret void
}